; Function Attrs: mustprogress uwtable
define dso_local void @_ZN13cmSystemTools23GetEnvironmentVariablesB5cxx11Ev(ptr dead_on_unwind noalias writable sret(%"class.std::vector") align 8 initializes((0, 24)) %0) local_unnamed_addr #3 align 2 personality ptr @__gxx_personality_v0 {
  tail call void @llvm.memset.p0.i64(ptr noundef nonnull align 8 dereferenceable(24) %0, i8 0, i64 24, i1 false)
  %2 = load ptr, ptr @environ, align 8, !tbaa !335
  %3 = load ptr, ptr %2, align 8, !tbaa !22
  %.not5 = icmp eq ptr %3, null
  br i1 %.not5, label %._crit_edge, label %.lr.ph

.lr.ph:                                           ; preds = %1, %6
  %indvars.iv = phi i64 [ %indvars.iv.next, %6 ], [ 0, %1 ]
  %4 = phi ptr [ %8, %6 ], [ %2, %1 ]
  %5 = invoke noundef nonnull align 8 dereferenceable(32) ptr @_ZNSt6vectorINSt7__cxx1112basic_stringIcSt11char_traitsIcESaIcEEESaIS5_EE12emplace_backIJRPcEEERS5_DpOT_(ptr noundef nonnull align 8 dereferenceable(24) %0, ptr noundef nonnull align 8 dereferenceable(8) %4)
          to label %6 unwind label %10

6:                                                ; preds = %.lr.ph
  %indvars.iv.next = add nuw nsw i64 %indvars.iv, 1
  %7 = load ptr, ptr @environ, align 8, !tbaa !335
  %8 = getelementptr inbounds nuw ptr, ptr %7, i64 %indvars.iv.next
  %9 = load ptr, ptr %8, align 8, !tbaa !22
  %.not = icmp eq ptr %9, null
  br i1 %.not, label %._crit_edge, label %.lr.ph, !llvm.loop !336

10:                                               ; preds = %.lr.ph
  %11 = landingpad { ptr, i32 }
          cleanup
  tail call void @_ZNSt6vectorINSt7__cxx1112basic_stringIcSt11char_traitsIcESaIcEEESaIS5_EED2Ev(ptr noundef nonnull align 8 dereferenceable(24) %0) #37
  resume { ptr, i32 } %11

._crit_edge:                                      ; preds = %6, %1
  ret void
}